(dp0
(F1000.0
F825.0
tp1
I49998
s(F600.0
F200.0
tp2
I49999
s(F975.0
F475.0
tp3
I49997
s(F1100.0
F775.0
tp4
I49996
s(F1150.0
F450.0
tp5
I49997
s(F800.0
F525.0
tp6
I49996
s(F1100.0
F325.0
tp7
I49999
s(F800.0
F75.0
tp8
I49999
s(F1150.0
F575.0
tp9
I49997
s(F1100.0
F275.0
tp10
I50000
s(F1025.0
F700.0
tp11
I49996
s(F1050.0
F400.0
tp12
I49997
s(F975.0
F325.0
tp13
I49996
s(F1200.0
F850.0
tp14
I49995
s(F1175.0
F50.0
tp15
I49997
s(F575.0
F225.0
tp16
I50000
s(F1075.0
F275.0
tp17
I49994
s(F1200.0
F575.0
tp18
I49997
s(F1025.0
F375.0
tp19
I49997
s(F725.0
F150.0
tp20
I49995
s(F575.0
F275.0
tp21
I49997
s(F675.0
F500.0
tp22
I49997
s(F775.0
F50.0
tp23
I50000
s(F275.0
F75.0
tp24
I50000
s(F875.0
F200.0
tp25
I49998
s(F250.0
F75.0
tp26
I50000
s(F725.0
F325.0
tp27
I49997
s(F1050.0
F875.0
tp28
I49999
s(F925.0
F175.0
tp29
I49997
s(F1000.0
F325.0
tp30
I49999
s(F1200.0
F775.0
tp31
I49995
s(F625.0
F50.0
tp32
I50000
s(F425.0
F225.0
tp33
I49997
s(F700.0
F75.0
tp34
I49999
s(F1100.0
F800.0
tp35
I49997
s(F1000.0
F150.0
tp36
I49994
s(F1000.0
F800.0
tp37
I49999
s(F500.0
F225.0
tp38
I49997
s(F1175.0
F300.0
tp39
I49997
s(F1200.0
F475.0
tp40
I49997
s(F900.0
F675.0
tp41
I49998
s(F525.0
F350.0
tp42
I49999
s(F1125.0
F225.0
tp43
I49998
s(F775.0
F450.0
tp44
I49999
s(F1175.0
F825.0
tp45
I49998
s(F500.0
F300.0
tp46
I49998
s(F950.0
F100.0
tp47
I49995
s(F1175.0
F75.0
tp48
I49997
s(F975.0
F725.0
tp49
I50000
s(F1175.0
F450.0
tp50
I49995
s(F850.0
F250.0
tp51
I49999
s(F825.0
F475.0
tp52
I49999
s(F1025.0
F550.0
tp53
I49997
s(F550.0
F325.0
tp54
I49998
s(F1100.0
F875.0
tp55
I49995
s(F900.0
F600.0
tp56
I50000
s(F1175.0
F800.0
tp57
I49998
s(F1050.0
F550.0
tp58
I49997
s(F675.0
F100.0
tp59
I49999
s(F600.0
F275.0
tp60
I49999
s(F700.0
F100.0
tp61
I49996
s(F600.0
F375.0
tp62
I49999
s(F925.0
F275.0
tp63
I49998
s(F450.0
F200.0
tp64
I49998
s(F1150.0
F350.0
tp65
I49996
s(F500.0
F75.0
tp66
I50000
s(F600.0
F225.0
tp67
I50000
s(F975.0
F200.0
tp68
I50000
s(F575.0
F375.0
tp69
I49998
s(F475.0
F150.0
tp70
I49999
s(F1050.0
F650.0
tp71
I49994
s(F1100.0
F450.0
tp72
I50000
s(F1125.0
F900.0
tp73
I49995
s(F500.0
F150.0
tp74
I49997
s(F950.0
F525.0
tp75
I49996
s(F750.0
F275.0
tp76
I49997
s(F425.0
F150.0
tp77
I50000
s(F975.0
F575.0
tp78
I49999
s(F1025.0
F200.0
tp79
I49997
s(F875.0
F225.0
tp80
I50000
s(F1000.0
F50.0
tp81
I49997
s(F1175.0
F475.0
tp82
I49998
s(F800.0
F200.0
tp83
I49998
s(F875.0
F550.0
tp84
I49999
s(F1025.0
F575.0
tp85
I49999
s(F550.0
F100.0
tp86
I49997
s(F725.0
F500.0
tp87
I49999
s(F625.0
F75.0
tp88
I49999
s(F575.0
F100.0
tp89
I49999
s(F375.0
F75.0
tp90
I50000
s(F900.0
F175.0
tp91
I49998
s(F1200.0
F700.0
tp92
I49997
s(F725.0
F550.0
tp93
I49998
s(F750.0
F250.0
tp94
I49999
s(F975.0
F50.0
tp95
I49997
s(F675.0
F250.0
tp96
I50000
s(F650.0
F200.0
tp97
I49999
s(F400.0
F100.0
tp98
I50000
s(F925.0
F425.0
tp99
I49999
s(F1125.0
F600.0
tp100
I49997
s(F700.0
F200.0
tp101
I49999
s(F725.0
F425.0
tp102
I50000
s(F875.0
F500.0
tp103
I49999
s(F850.0
F75.0
tp104
I49996
s(F850.0
F375.0
tp105
I50000
s(F1125.0
F425.0
tp106
I49999
s(F1125.0
F100.0
tp107
I49995
s(F825.0
F350.0
tp108
I49997
s(F725.0
F400.0
tp109
I50000
s(F775.0
F250.0
tp110
I49999
s(F950.0
F150.0
tp111
I50000
s(F825.0
F50.0
tp112
I49998
s(F1075.0
F300.0
tp113
I49995
s(F475.0
F50.0
tp114
I50000
s(F625.0
F350.0
tp115
I49999
s(F575.0
F250.0
tp116
I49997
s(F900.0
F150.0
tp117
I49997
s(F425.0
F50.0
tp118
I50000
s(F575.0
F75.0
tp119
I49999
s(F325.0
F100.0
tp120
I50000
s(F550.0
F75.0
tp121
I49999
s(F600.0
F400.0
tp122
I49999
s(F1125.0
F50.0
tp123
I49997
s(F1175.0
F675.0
tp124
I49996
s(F1150.0
F625.0
tp125
I49997
s(F1175.0
F225.0
tp126
I49998
s(F500.0
F275.0
tp127
I50000
s(F1150.0
F500.0
tp128
I49997
s(F1125.0
F950.0
tp129
I49997
s(F1025.0
F500.0
tp130
I49999
s(F1150.0
F400.0
tp131
I49994
s(F575.0
F325.0
tp132
I50000
s(F1000.0
F775.0
tp133
I50000
s(F1125.0
F775.0
tp134
I49995
s(F650.0
F275.0
tp135
I49998
s(F950.0
F325.0
tp136
I49995
s(F1000.0
F425.0
tp137
I49999
s(F950.0
F775.0
tp138
I49998
s(F675.0
F400.0
tp139
I49998
s(F975.0
F600.0
tp140
I50000
s(F1025.0
F75.0
tp141
I49998
s(F875.0
F400.0
tp142
I50000
s(F975.0
F700.0
tp143
I50000
s(F1175.0
F350.0
tp144
I49999
s(F1025.0
F150.0
tp145
I49999
s(F825.0
F525.0
tp146
I50000
s(F1050.0
F150.0
tp147
I49998
s(F950.0
F750.0
tp148
I49996
s(F950.0
F50.0
tp149
I49999
s(F1050.0
F675.0
tp150
I49994
s(F650.0
F250.0
tp151
I49998
s(F1200.0
F825.0
tp152
I49999
s(F750.0
F450.0
tp153
I49998
s(F550.0
F175.0
tp154
I50000
s(F525.0
F100.0
tp155
I50000
s(F750.0
F75.0
tp156
I49996
s(F1150.0
F725.0
tp157
I49997
s(F900.0
F650.0
tp158
I50000
s(F525.0
F250.0
tp159
I49997
s(F925.0
F675.0
tp160
I49997
s(F925.0
F225.0
tp161
I49999
s(F925.0
F300.0
tp162
I49999
s(F775.0
F325.0
tp163
I49997
s(F825.0
F225.0
tp164
I49997
s(F1125.0
F475.0
tp165
I49998
s(F1100.0
F925.0
tp166
I49997
s(F550.0
F300.0
tp167
I49999
s(F1000.0
F400.0
tp168
I50000
s(F950.0
F725.0
tp169
I49997
s(F875.0
F525.0
tp170
I49999
s(F450.0
F50.0
tp171
I50000
s(F475.0
F175.0
tp172
I49999
s(F1125.0
F300.0
tp173
I49995
s(F875.0
F325.0
tp174
I49997
s(F1200.0
F125.0
tp175
I49999
s(F1150.0
F875.0
tp176
I49995
s(F975.0
F400.0
tp177
I49996
s(F1175.0
F400.0
tp178
I49996
s(F850.0
F300.0
tp179
I49998
s(F1025.0
F300.0
tp180
I49999
s(F900.0
F200.0
tp181
I49999
s(F725.0
F225.0
tp182
I50000
s(F1025.0
F50.0
tp183
I49999
s(F875.0
F475.0
tp184
I49999
s(F1050.0
F625.0
tp185
I49996
s(F700.0
F525.0
tp186
I49998
s(F1175.0
F550.0
tp187
I49996
s(F950.0
F650.0
tp188
I49999
s(F925.0
F250.0
tp189
I49998
s(F800.0
F375.0
tp190
I49999
s(F1175.0
F100.0
tp191
I49999
s(F925.0
F700.0
tp192
I49997
s(F975.0
F450.0
tp193
I49998
s(F700.0
F400.0
tp194
I49997
s(F1050.0
F450.0
tp195
I50000
s(F275.0
F100.0
tp196
I50000
s(F1050.0
F700.0
tp197
I49995
s(F1100.0
F575.0
tp198
I49998
s(F1100.0
F125.0
tp199
I49995
s(F900.0
F500.0
tp200
I49999
s(F1050.0
F275.0
tp201
I49998
s(F750.0
F150.0
tp202
I50000
s(F550.0
F275.0
tp203
I49998
s(F1075.0
F850.0
tp204
I49996
s(F1150.0
F975.0
tp205
I49996
s(F675.0
F150.0
tp206
I50000
s(F700.0
F125.0
tp207
I50000
s(F950.0
F625.0
tp208
I49998
s(F800.0
F600.0
tp209
I49996
s(F1075.0
F350.0
tp210
I49998
s(F875.0
F150.0
tp211
I49998
s(F1175.0
F425.0
tp212
I49993
s(F700.0
F450.0
tp213
I49997
s(F1150.0
F275.0
tp214
I49997
s(F1025.0
F800.0
tp215
I49998
s(F1100.0
F150.0
tp216
I49999
s(F1200.0
F625.0
tp217
I49996
s(F825.0
F400.0
tp218
I49995
s(F475.0
F225.0
tp219
I50000
s(F1150.0
F800.0
tp220
I49997
s(F825.0
F100.0
tp221
I49998
s(F1175.0
F950.0
tp222
I49996
s(F1175.0
F125.0
tp223
I49997
s(F1150.0
F925.0
tp224
I49997
s(F550.0
F350.0
tp225
I50000
s(F1175.0
F500.0
tp226
I49998
s(F775.0
F575.0
tp227
I49997
s(F925.0
F100.0
tp228
I49998
s(F950.0
F350.0
tp229
I49997
s(F900.0
F350.0
tp230
I49997
s(F1125.0
F350.0
tp231
I49999
s(F1200.0
F550.0
tp232
I49997
s(F725.0
F175.0
tp233
I49999
s(F625.0
F325.0
tp234
I49998
s(F950.0
F200.0
tp235
I49997
s(F875.0
F700.0
tp236
I49999
s(F725.0
F350.0
tp237
I49999
s(F850.0
F125.0
tp238
I49998
s(F1125.0
F175.0
tp239
I49997
s(F1200.0
F250.0
tp240
I49997
s(F850.0
F425.0
tp241
I49998
s(F1000.0
F700.0
tp242
I49996
s(F850.0
F575.0
tp243
I49997
s(F850.0
F650.0
tp244
I49999
s(F375.0
F150.0
tp245
I49999
s(F450.0
F75.0
tp246
I50000
s(F1200.0
F450.0
tp247
I49994
s(F1075.0
F750.0
tp248
I50000
s(F1025.0
F175.0
tp249
I49998
s(F1050.0
F350.0
tp250
I49998
s(F1175.0
F975.0
tp251
I49998
s(F1200.0
F175.0
tp252
I49998
s(F1025.0
F775.0
tp253
I49998
s(F325.0
F150.0
tp254
I50000
s(F1150.0
F900.0
tp255
I49997
s(F875.0
F50.0
tp256
I49999
s(F650.0
F450.0
tp257
I49997
s(F1050.0
F825.0
tp258
I49999
s(F725.0
F275.0
tp259
I49999
s(F525.0
F150.0
tp260
I49999
s(F950.0
F450.0
tp261
I49996
s(F925.0
F125.0
tp262
I50000
s(F800.0
F500.0
tp263
I49999
s(F900.0
F325.0
tp264
I49997
s(F1100.0
F250.0
tp265
I49996
s(F925.0
F500.0
tp266
I49999
s(F925.0
F575.0
tp267
I49997
s(F1150.0
F125.0
tp268
I49997
s(F850.0
F100.0
tp269
I49999
s(F1000.0
F200.0
tp270
I50000
s(F975.0
F775.0
tp271
I49997
s(F1200.0
F975.0
tp272
I49995
s(F1200.0
F325.0
tp273
I49997
s(F750.0
F125.0
tp274
I49997
s(F625.0
F175.0
tp275
I49999
s(F350.0
F75.0
tp276
I49999
s(F1000.0
F675.0
tp277
I49997
s(F1125.0
F450.0
tp278
I49999
s(F825.0
F575.0
tp279
I49999
s(F350.0
F125.0
tp280
I49998
s(F1125.0
F925.0
tp281
I49997
s(F1075.0
F600.0
tp282
I49999
s(F1000.0
F125.0
tp283
I49999
s(F975.0
F100.0
tp284
I49999
s(F875.0
F600.0
tp285
I50000
s(F1150.0
F850.0
tp286
I49996
s(F775.0
F425.0
tp287
I50000
s(F1100.0
F725.0
tp288
I49998
s(F925.0
F725.0
tp289
I49999
s(F825.0
F175.0
tp290
I49998
s(F900.0
F475.0
tp291
I49998
s(F650.0
F300.0
tp292
I49999
s(F825.0
F75.0
tp293
I49998
s(F1150.0
F100.0
tp294
I49997
s(F1025.0
F675.0
tp295
I49999
s(F1000.0
F525.0
tp296
I49998
s(F825.0
F625.0
tp297
I49999
s(F1200.0
F675.0
tp298
I49998
s(F1100.0
F300.0
tp299
I49999
s(F775.0
F600.0
tp300
I49999
s(F1025.0
F100.0
tp301
I49996
s(F875.0
F125.0
tp302
I49997
s(F1175.0
F725.0
tp303
I49998
s(F1050.0
F100.0
tp304
I49997
s(F500.0
F325.0
tp305
I50000
s(F350.0
F100.0
tp306
I49998
s(F700.0
F375.0
tp307
I49999
s(F1000.0
F100.0
tp308
I49999
s(F375.0
F100.0
tp309
I50000
s(F400.0
F75.0
tp310
I50000
s(F1125.0
F625.0
tp311
I49998
s(F475.0
F275.0
tp312
I49998
s(F975.0
F650.0
tp313
I49999
s(F1150.0
F950.0
tp314
I49995
s(F500.0
F125.0
tp315
I49997
s(F850.0
F50.0
tp316
I50000
s(F900.0
F450.0
tp317
I49997
s(F1100.0
F375.0
tp318
I49998
s(F850.0
F350.0
tp319
I49999
s(F1075.0
F500.0
tp320
I49999
s(F1150.0
F825.0
tp321
I49996
s(F825.0
F375.0
tp322
I49997
s(F925.0
F150.0
tp323
I49998
s(F625.0
F200.0
tp324
I49999
s(F900.0
F700.0
tp325
I49999
s(F875.0
F675.0
tp326
I49998
s(F1050.0
F375.0
tp327
I49995
s(F1025.0
F400.0
tp328
I49999
s(F1150.0
F200.0
tp329
I49999
s(F450.0
F100.0
tp330
I49999
s(F1075.0
F825.0
tp331
I49993
s(F1050.0
F775.0
tp332
I49999
s(F800.0
F325.0
tp333
I49998
s(F300.0
F75.0
tp334
I50000
s(F650.0
F375.0
tp335
I49998
s(F1025.0
F125.0
tp336
I49999
s(F1125.0
F675.0
tp337
I49999
s(F675.0
F325.0
tp338
I49995
s(F1025.0
F725.0
tp339
I49997
s(F275.0
F50.0
tp340
I50000
s(F600.0
F50.0
tp341
I49999
s(F1125.0
F400.0
tp342
I49998
s(F900.0
F625.0
tp343
I49997
s(F375.0
F125.0
tp344
I49999
s(F950.0
F175.0
tp345
I50000
s(F750.0
F550.0
tp346
I49998
s(F1100.0
F850.0
tp347
I49996
s(F725.0
F75.0
tp348
I49999
s(F775.0
F75.0
tp349
I49996
s(F650.0
F425.0
tp350
I50000
s(F575.0
F50.0
tp351
I49999
s(F1075.0
F175.0
tp352
I49998
s(F950.0
F300.0
tp353
I49998
s(F775.0
F225.0
tp354
I49999
s(F700.0
F425.0
tp355
I49998
s(F600.0
F100.0
tp356
I50000
s(F575.0
F300.0
tp357
I49998
s(F375.0
F175.0
tp358
I49998
s(F1175.0
F525.0
tp359
I49997
s(F1100.0
F425.0
tp360
I49998
s(F475.0
F75.0
tp361
I49999
s(F1175.0
F900.0
tp362
I49996
s(F1150.0
F300.0
tp363
I49995
s(F975.0
F150.0
tp364
I49996
s(F1050.0
F225.0
tp365
I49998
s(F1125.0
F875.0
tp366
I49999
s(F1175.0
F150.0
tp367
I49995
s(F975.0
F425.0
tp368
I49999
s(F1200.0
F800.0
tp369
I49996
s(F525.0
F125.0
tp370
I49998
s(F700.0
F475.0
tp371
I49998
s(F1000.0
F475.0
tp372
I49997
s(F1175.0
F600.0
tp373
I49997
s(F675.0
F475.0
tp374
I49999
s(F1175.0
F775.0
tp375
I49996
s(F500.0
F250.0
tp376
I49999
s(F750.0
F325.0
tp377
I49999
s(F900.0
F275.0
tp378
I49996
s(F850.0
F175.0
tp379
I49999
s(F850.0
F475.0
tp380
I49999
s(F1025.0
F625.0
tp381
I49996
s(F850.0
F625.0
tp382
I49998
s(F825.0
F250.0
tp383
I49996
s(F975.0
F75.0
tp384
I49996
s(F1075.0
F450.0
tp385
I49998
s(F1100.0
F900.0
tp386
I49998
s(F950.0
F75.0
tp387
I49997
s(F950.0
F700.0
tp388
I49996
s(F1200.0
F300.0
tp389
I49995
s(F1150.0
F250.0
tp390
I49999
s(F1125.0
F650.0
tp391
I49999
s(F750.0
F400.0
tp392
I49999
s(F1200.0
F100.0
tp393
I49991
s(F1200.0
F425.0
tp394
I49996
s(F1025.0
F525.0
tp395
I49997
s(F1075.0
F250.0
tp396
I49996
s(F1175.0
F925.0
tp397
I49996
s(F1050.0
F575.0
tp398
I49998
s(F1200.0
F1025.0
tp399
I49999
s(F1025.0
F275.0
tp400
I49998
s(F1175.0
F175.0
tp401
I49996
s(F1100.0
F75.0
tp402
I49997
s(F525.0
F275.0
tp403
I49998
s(F800.0
F450.0
tp404
I49997
s(F800.0
F150.0
tp405
I49999
s(F725.0
F250.0
tp406
I49999
s(F1000.0
F450.0
tp407
I49995
s(F1175.0
F1000.0
tp408
I49999
s(F675.0
F75.0
tp409
I49998
s(F600.0
F175.0
tp410
I50000
s(F1125.0
F275.0
tp411
I49995
s(F1200.0
F950.0
tp412
I49992
s(F1175.0
F250.0
tp413
I49998
s(F1100.0
F625.0
tp414
I49997
s(F975.0
F350.0
tp415
I49996
s(F600.0
F350.0
tp416
I50000
s(F550.0
F50.0
tp417
I49999
s(F350.0
F175.0
tp418
I50000
s(F1000.0
F375.0
tp419
I49997
s(F1150.0
F675.0
tp420
I49997
s(F600.0
F325.0
tp421
I49998
s(F1100.0
F550.0
tp422
I49997
s(F875.0
F375.0
tp423
I50000
s(F1100.0
F100.0
tp424
I49999
s(F400.0
F175.0
tp425
I50000
s(F950.0
F550.0
tp426
I49994
s(F1075.0
F800.0
tp427
I49997
s(F700.0
F350.0
tp428
I49997
s(F950.0
F600.0
tp429
I49997
s(F750.0
F350.0
tp430
I49998
s(F525.0
F325.0
tp431
I49999
s(F775.0
F350.0
tp432
I49999
s(F675.0
F350.0
tp433
I49998
s(F1125.0
F750.0
tp434
I50000
s(F775.0
F275.0
tp435
I49998
s(F300.0
F100.0
tp436
I50000
s(F1025.0
F425.0
tp437
I50000
s(F650.0
F225.0
tp438
I50000
s(F500.0
F200.0
tp439
I49998
s(F825.0
F425.0
tp440
I49995
s(F825.0
F125.0
tp441
I50000
s(F625.0
F125.0
tp442
I49999
s(F1025.0
F750.0
tp443
I49997
s(F350.0
F150.0
tp444
I50000
s(F425.0
F125.0
tp445
I50000
s(F450.0
F150.0
tp446
I50000
s(F550.0
F150.0
tp447
I49999
s(F1125.0
F700.0
tp448
I49997
s(F1125.0
F375.0
tp449
I50000
s(F1150.0
F775.0
tp450
I49998
s(F1075.0
F200.0
tp451
I50000
s(F950.0
F500.0
tp452
I49995
s(F1050.0
F250.0
tp453
I49999
s(F975.0
F500.0
tp454
I49997
s(F650.0
F400.0
tp455
I49999
s(F550.0
F225.0
tp456
I50000
s(F725.0
F375.0
tp457
I49999
s(F1125.0
F525.0
tp458
I49994
s(F1200.0
F225.0
tp459
I49995
s(F850.0
F400.0
tp460
I49997
s(F850.0
F550.0
tp461
I49999
s(F700.0
F225.0
tp462
I50000
s(F1050.0
F425.0
tp463
I49998
s(F875.0
F275.0
tp464
I49997
s(F700.0
F325.0
tp465
I49998
s(F1050.0
F725.0
tp466
I49996
s(F925.0
F50.0
tp467
I49995
s(F775.0
F175.0
tp468
I49998
s(F800.0
F275.0
tp469
I49997
s(F725.0
F450.0
tp470
I49999
s(F575.0
F175.0
tp471
I49997
s(F400.0
F225.0
tp472
I49999
s(F300.0
F125.0
tp473
I49999
s(F600.0
F300.0
tp474
I49999
s(F1125.0
F150.0
tp475
I49995
s(F1200.0
F750.0
tp476
I49998
s(F725.0
F300.0
tp477
I49999
s(F975.0
F225.0
tp478
I49999
s(F750.0
F200.0
tp479
I50000
s(F1100.0
F675.0
tp480
I49997
s(F1000.0
F750.0
tp481
I50000
s(F1100.0
F225.0
tp482
I49993
s(F1000.0
F600.0
tp483
I49995
s(F750.0
F50.0
tp484
I49999
s(F650.0
F175.0
tp485
I49998
s(F675.0
F50.0
tp486
I49998
s(F800.0
F350.0
tp487
I49998
s(F500.0
F175.0
tp488
I49999
s(F350.0
F50.0
tp489
I49999
s(F825.0
F600.0
tp490
I49997
s(F675.0
F275.0
tp491
I49998
s(F1075.0
F550.0
tp492
I49995
s(F975.0
F800.0
tp493
I49996
s(F1075.0
F100.0
tp494
I49996
s(F950.0
F400.0
tp495
I49999
s(F1200.0
F375.0
tp496
I49998
s(F750.0
F475.0
tp497
I49998
s(F625.0
F275.0
tp498
I49998
s(F825.0
F300.0
tp499
I49999
s(F975.0
F275.0
tp500
I49996
s(F825.0
F200.0
tp501
I49999
s(F1175.0
F575.0
tp502
I49997
s(F1175.0
F275.0
tp503
I49997
s(F475.0
F250.0
tp504
I49999
s(F450.0
F275.0
tp505
I49999
s(F925.0
F200.0
tp506
I49999
s(F1000.0
F725.0
tp507
I49997
s(F1125.0
F125.0
tp508
I49995
s(F1025.0
F325.0
tp509
I49998
s(F1075.0
F650.0
tp510
I49997
s(F625.0
F375.0
tp511
I50000
s(F1200.0
F600.0
tp512
I49995
s(F850.0
F225.0
tp513
I49998
s(F825.0
F650.0
tp514
I49997
s(F1125.0
F575.0
tp515
I50000
s(F850.0
F675.0
tp516
I49998
s(F1075.0
F400.0
tp517
I50000
s(F775.0
F475.0
tp518
I49998
s(F575.0
F400.0
tp519
I49999
s(F1150.0
F75.0
tp520
I49998
s(F1100.0
F600.0
tp521
I49997
s(F1200.0
F525.0
tp522
I49998
s(F1075.0
F725.0
tp523
I49993
s(F675.0
F450.0
tp524
I49999
s(F400.0
F150.0
tp525
I49998
s(F875.0
F450.0
tp526
I49999
s(F650.0
F75.0
tp527
I49998
s(F1075.0
F875.0
tp528
I49997
s(F800.0
F550.0
tp529
I49999
s(F800.0
F400.0
tp530
I49998
s(F1125.0
F800.0
tp531
I49995
s(F800.0
F100.0
tp532
I49999
s(F250.0
F50.0
tp533
I50000
s(F775.0
F200.0
tp534
I49997
s(F975.0
F300.0
tp535
I49997
s(F700.0
F50.0
tp536
I49996
s(F1200.0
F875.0
tp537
I49998
s(F1175.0
F650.0
tp538
I49996
s(F900.0
F100.0
tp539
I50000
s(F1175.0
F200.0
tp540
I49995
s(F1175.0
F375.0
tp541
I49994
s(F650.0
F50.0
tp542
I49997
s(F1200.0
F150.0
tp543
I49998
s(F750.0
F175.0
tp544
I49999
s(F1000.0
F625.0
tp545
I49999
s(F1025.0
F225.0
tp546
I49999
s(F800.0
F475.0
tp547
I49999
s(F775.0
F125.0
tp548
I49999
s(F1150.0
F175.0
tp549
I49996
s(F800.0
F175.0
tp550
I50000
s(F875.0
F575.0
tp551
I50000
s(F425.0
F200.0
tp552
I50000
s(F1200.0
F900.0
tp553
I49999
s(F725.0
F100.0
tp554
I49999
s(F650.0
F475.0
tp555
I49997
s(F1200.0
F500.0
tp556
I49995
s(F475.0
F200.0
tp557
I49999
s(F450.0
F250.0
tp558
I50000
s(F1050.0
F175.0
tp559
I49996
s(F925.0
F550.0
tp560
I50000
s(F925.0
F650.0
tp561
I49998
s(F775.0
F550.0
tp562
I49999
s(F1075.0
F625.0
tp563
I49996
s(F925.0
F75.0
tp564
I49998
s(F775.0
F100.0
tp565
I49998
s(F900.0
F250.0
tp566
I50000
s(F925.0
F450.0
tp567
I49998
s(F925.0
F525.0
tp568
I49999
s(F950.0
F125.0
tp569
I49999
s(F950.0
F375.0
tp570
I49996
s(F1100.0
F700.0
tp571
I49995
s(F950.0
F575.0
tp572
I49998
s(F1000.0
F300.0
tp573
I49998
s(F1025.0
F250.0
tp574
I49999
s(F875.0
F300.0
tp575
I49995
s(F375.0
F200.0
tp576
I50000
s(F700.0
F150.0
tp577
I49998
s(F1050.0
F300.0
tp578
I49998
s(F1025.0
F850.0
tp579
I49998
s(F1175.0
F750.0
tp580
I49998
s(F1075.0
F150.0
tp581
I49999
s(F975.0
F750.0
tp582
I49994
s(F650.0
F150.0
tp583
I50000
s(F975.0
F625.0
tp584
I49999
s(F1050.0
F600.0
tp585
I49999
s(F850.0
F150.0
tp586
I49999
s(F625.0
F450.0
tp587
I49999
s(F1200.0
F650.0
tp588
I49997
s(F850.0
F450.0
tp589
I49996
s(F850.0
F600.0
tp590
I49999
s(F825.0
F275.0
tp591
I49998
s(F1125.0
F850.0
tp592
I49999
s(F1075.0
F475.0
tp593
I49997
s(F675.0
F200.0
tp594
I49997
s(F425.0
F100.0
tp595
I50000
s(F1050.0
F475.0
tp596
I49997
s(F700.0
F300.0
tp597
I49997
s(F900.0
F225.0
tp598
I49997
s(F1150.0
F600.0
tp599
I49997
s(F925.0
F475.0
tp600
I49997
s(F800.0
F225.0
tp601
I49999
s(F975.0
F675.0
tp602
I49998
s(F1150.0
F550.0
tp603
I49996
s(F1200.0
F1000.0
tp604
I49997
s(F1000.0
F275.0
tp605
I49997
s(F1100.0
F350.0
tp606
I49995
s(F500.0
F50.0
tp607
I50000
s(F1200.0
F275.0
tp608
I49997
s(F525.0
F75.0
tp609
I49998
s(F900.0
F125.0
tp610
I49997
s(F575.0
F200.0
tp611
I49999
s(F525.0
F200.0
tp612
I50000
s(F1150.0
F750.0
tp613
I49998
s(F1075.0
F900.0
tp614
I49997
s(F875.0
F425.0
tp615
I49997
s(F850.0
F525.0
tp616
I49999
s(F800.0
F300.0
tp617
I49997
s(F425.0
F75.0
tp618
I50000
s(F775.0
F400.0
tp619
I49999
s(F1150.0
F50.0
tp620
I49995
s(F900.0
F75.0
tp621
I49996
s(F900.0
F525.0
tp622
I49997
s(F1075.0
F50.0
tp623
I49999
s(F1050.0
F750.0
tp624
I49997
s(F1125.0
F825.0
tp625
I49995
s(F1100.0
F825.0
tp626
I49998
s(F1125.0
F500.0
tp627
I49998
s(F1000.0
F250.0
tp628
I49994
s(F1150.0
F700.0
tp629
I49997
s(F1050.0
F325.0
tp630
I49997
s(F975.0
F125.0
tp631
I49998
s(F1025.0
F650.0
tp632
I49997
s(F1075.0
F375.0
tp633
I49998
s(F1150.0
F650.0
tp634
I49993
s(F925.0
F325.0
tp635
I50000
s(F1125.0
F200.0
tp636
I49996
s(F800.0
F50.0
tp637
I49999
s(F525.0
F225.0
tp638
I49997
s(F875.0
F100.0
tp639
I49999
s(F325.0
F75.0
tp640
I49999
s(F1150.0
F225.0
tp641
I49996
s(F675.0
F375.0
tp642
I50000
s(F1050.0
F125.0
tp643
I49998
s(F625.0
F250.0
tp644
I49999
s(F900.0
F375.0
tp645
I49997
s(F850.0
F275.0
tp646
I49997
s(F1100.0
F400.0
tp647
I49998
s(F825.0
F450.0
tp648
I49998
s(F925.0
F375.0
tp649
I49998
s(F650.0
F125.0
tp650
I49998
s(F825.0
F150.0
tp651
I49996
s(F975.0
F175.0
tp652
I49999
s(F500.0
F100.0
tp653
I49999
s(F625.0
F425.0
tp654
I49999
s(F775.0
F300.0
tp655
I49998
s(F900.0
F50.0
tp656
I49999
s(F775.0
F525.0
tp657
I49999
s(F450.0
F225.0
tp658
I50000
s(F1150.0
F150.0
tp659
I49998
s(F750.0
F300.0
tp660
I49997
s(F900.0
F300.0
tp661
I49997
s(F1125.0
F725.0
tp662
I49995
s(F575.0
F350.0
tp663
I49999
s(F1150.0
F475.0
tp664
I49997
s(F875.0
F650.0
tp665
I49998
s(F525.0
F175.0
tp666
I49999
s(F1100.0
F475.0
tp667
I49998
s(F925.0
F350.0
tp668
I49999
s(F475.0
F300.0
tp669
I49999
s(F1000.0
F650.0
tp670
I49996
s(F1125.0
F75.0
tp671
I49996
s(F975.0
F550.0
tp672
I49997
s(F750.0
F525.0
tp673
I49996
s(F450.0
F175.0
tp674
I49999
s(F1075.0
F700.0
tp675
I49997
s(F400.0
F50.0
tp676
I49999
s(F1125.0
F325.0
tp677
I49997
s(F1200.0
F75.0
tp678
I49999
s(F1200.0
F400.0
tp679
I49994
s(F750.0
F575.0
tp680
I49999
s(F650.0
F100.0
tp681
I50000
s(F550.0
F125.0
tp682
I49999
s(F725.0
F475.0
tp683
I49999
s(F1000.0
F225.0
tp684
I49998
s(F400.0
F200.0
tp685
I49998
s(F1000.0
F575.0
tp686
I49997
s(F950.0
F275.0
tp687
I49997
s(F1100.0
F50.0
tp688
I49997
s(F625.0
F150.0
tp689
I49998
s(F800.0
F575.0
tp690
I49999
s(F800.0
F425.0
tp691
I49999
s(F875.0
F175.0
tp692
I49999
s(F800.0
F125.0
tp693
I49999
s(F1175.0
F850.0
tp694
I49996
s(F1050.0
F50.0
tp695
I49999
s(F425.0
F250.0
tp696
I50000
s(F1100.0
F500.0
tp697
I49999
s(F600.0
F125.0
tp698
I50000
s(F1075.0
F775.0
tp699
I49998
s(F950.0
F250.0
tp700
I49995
s(F400.0
F125.0
tp701
I50000
s(F1075.0
F325.0
tp702
I50000
s(F575.0
F150.0
tp703
I49999
s(F1125.0
F250.0
tp704
I49997
s(F1150.0
F325.0
tp705
I49997
s(F1050.0
F525.0
tp706
I49999
s(F625.0
F400.0
tp707
I49999
s(F1075.0
F575.0
tp708
I49995
s(F1075.0
F125.0
tp709
I49999
s(F1100.0
F525.0
tp710
I49996
s(F825.0
F325.0
tp711
I49999
s(F1000.0
F75.0
tp712
I49999
s(F700.0
F500.0
tp713
I49997
s(F625.0
F300.0
tp714
I49999
s(F675.0
F125.0
tp715
I49996
s(F1000.0
F550.0
tp716
I49999
s(F1025.0
F600.0
tp717
I50000
s(F900.0
F425.0
tp718
I50000
s(F1175.0
F700.0
tp719
I49995
s(F1175.0
F875.0
tp720
I49998
s(F625.0
F225.0
tp721
I49997
s(F950.0
F425.0
tp722
I50000
s(F675.0
F425.0
tp723
I49998
s(F525.0
F50.0
tp724
I49999
s(F850.0
F200.0
tp725
I49999
s(F750.0
F425.0
tp726
I49999
s(F850.0
F500.0
tp727
I50000
s(F1025.0
F825.0
tp728
I49998
s(F875.0
F75.0
tp729
I49998
s(F425.0
F175.0
tp730
I50000
s(F1050.0
F800.0
tp731
I49995
s(F1150.0
F425.0
tp732
I49996
s(F800.0
F625.0
tp733
I49999
s(F1125.0
F550.0
tp734
I49999
s(F700.0
F175.0
tp735
I49999
s(F1075.0
F675.0
tp736
I49998
s(F925.0
F600.0
tp737
I49999
s(F900.0
F725.0
tp738
I49999
s(F1075.0
F225.0
tp739
I49998
s(F775.0
F500.0
tp740
I50000
s(F1100.0
F175.0
tp741
I49996
s(F575.0
F125.0
tp742
I50000
s(F550.0
F200.0
tp743
I49999
s(F925.0
F625.0
tp744
I49996
s(F750.0
F100.0
tp745
I50000
s(F1200.0
F200.0
tp746
I49997
s(F900.0
F400.0
tp747
I49996
s(F650.0
F350.0
tp748
I50000
s(F550.0
F375.0
tp749
I49999
s(F950.0
F475.0
tp750
I49999
s(F600.0
F75.0
tp751
I49997
s(F725.0
F525.0
tp752
I49999
s(F1025.0
F450.0
tp753
I49998
s(F450.0
F125.0
tp754
I49999
s(F875.0
F625.0
tp755
I49999
s(F800.0
F250.0
tp756
I49997
s(F875.0
F350.0
tp757
I49998
s(F1025.0
F350.0
tp758
I49998
s(F1150.0
F375.0
tp759
I49996
s(F600.0
F250.0
tp760
I49998
s(F1050.0
F200.0
tp761
I49997
s(F1200.0
F725.0
tp762
I49996
s(F700.0
F275.0
tp763
I49999
s(F825.0
F500.0
tp764
I49999
s(F1075.0
F525.0
tp765
I49994
s(F1100.0
F650.0
tp766
I49995
s(F900.0
F575.0
tp767
I49999
s(F750.0
F375.0
tp768
I50000
s(F1075.0
F75.0
tp769
I49999
s(F1150.0
F525.0
tp770
I49998
s(F1100.0
F200.0
tp771
I50000
s(F600.0
F425.0
tp772
I49999
s(F975.0
F375.0
tp773
I49998
s(F1175.0
F625.0
tp774
I49999
s(F725.0
F125.0
tp775
I49997
s(F975.0
F525.0
tp776
I49999
s(F775.0
F375.0
tp777
I49997
s(F750.0
F500.0
tp778
I49999
s(F925.0
F750.0
tp779
I49997
s(F700.0
F250.0
tp780
I49999
s(F325.0
F125.0
tp781
I50000
s(F625.0
F100.0
tp782
I49997
s(F1050.0
F500.0
tp783
I50000
s(F675.0
F300.0
tp784
I49997
s(F1200.0
F350.0
tp785
I49997
s(F850.0
F325.0
tp786
I50000
s(F1025.0
F475.0
tp787
I49997
s(F825.0
F550.0
tp788
I49997
s(F725.0
F200.0
tp789
I50000
s(F1000.0
F500.0
tp790
I49996
s(F475.0
F100.0
tp791
I49999
s(F950.0
F225.0
tp792
I49998
s(F1050.0
F850.0
tp793
I49998
s(F725.0
F50.0
tp794
I49996
s(F375.0
F50.0
tp795
I50000
s(F950.0
F675.0
tp796
I49999
s(F675.0
F175.0
tp797
I49999
s(F525.0
F300.0
tp798
I50000
s(F900.0
F550.0
tp799
I49993
s(F325.0
F50.0
tp800
I49998
s(F650.0
F325.0
tp801
I49999
s(F875.0
F250.0
tp802
I50000
s(F1175.0
F325.0
tp803
I49998
s(F600.0
F150.0
tp804
I49999
s(F775.0
F150.0
tp805
I49995
s(F550.0
F250.0
tp806
I50000
s(F925.0
F400.0
tp807
I49997
s(F1075.0
F425.0
tp808
I49998
s(F1200.0
F925.0
tp809
I49997
s(F1100.0
F750.0
tp810
I49998
s(F300.0
F50.0
tp811
I50000
s(F675.0
F225.0
tp812
I49998
s(F225.0
F50.0
tp813
I50000
s(F1000.0
F350.0
tp814
I49997
s(F750.0
F225.0
tp815
I49999
s(F975.0
F250.0
tp816
I49998
s(F1050.0
F75.0
tp817
I49997
s(F1200.0
F50.0
tp818
I49998
s(F1000.0
F175.0
tp819
I49998
s(F475.0
F125.0
tp820
I49999
s.